target datalayout = "e-m:e-p270:32:32-p271:32:32-p272:64:64-i64:64-i128:128-f80:128-n8:16:32:64-S128"
target triple = "x86_64-pc-linux-gnu"

%struct._packet_info = type { ptr, ptr, i32, i32, %struct.nstime_t, %struct.nstime_t, %struct.nstime_t, i8, ptr, ptr, ptr, ptr, %struct._address, %struct._address, %struct._address, %struct._address, %struct._address, %struct._address, i32, ptr, i8, [3 x i8], %struct.anon, i32, i32, i32, i32, ptr, i8, ptr, ptr, i16, i16, i32, i32, i16, i32, i32, ptr, ptr, ptr, i8, i8, i16, i16, i16, i32, i16, i16, ptr, ptr, ptr, ptr, ptr, i32, i32 }
%struct.nstime_t = type { i64, i32 }
%struct._address = type { i32, i32, ptr, ptr }
%struct.anon = type { i8, [3 x i8] }

@hf_2008_1_dpp_0_1_1_version = internal global i32 0, align 4
@.str.702 = private unnamed_addr constant [6 x i8] c"Query\00", align 1
@.str.703 = private unnamed_addr constant [15 x i8] c"Query Response\00", align 1
@.str.708 = private unnamed_addr constant [7 x i8] c"DPPv0 \00", align 1

; Function Attrs: null_pointer_is_valid sspstrong uwtable
define internal i32 @dissect_dpp_0(ptr noundef %0, ptr noundef %1, ptr noundef %2, ptr noundef %3) #0 {
  %5 = alloca ptr, align 8
  %6 = alloca ptr, align 8
  %7 = alloca ptr, align 8
  %8 = alloca ptr, align 8
  %9 = alloca i32, align 4
  %10 = alloca i8, align 1
  %11 = alloca i8, align 1
  %12 = alloca i8, align 1
  store ptr %0, ptr %5, align 8
  store ptr %1, ptr %6, align 8
  store ptr %2, ptr %7, align 8
  store ptr %3, ptr %8, align 8
  call void @llvm.lifetime.start.p0(i64 4, ptr %9) #19
  store i32 0, ptr %9, align 4
  call void @llvm.lifetime.start.p0(i64 1, ptr %10) #19
  store i8 0, ptr %10, align 1
  store i32 0, ptr %9, align 4
  %13 = load ptr, ptr %6, align 8
  %14 = getelementptr inbounds nuw %struct._packet_info, ptr %13, i32 0, i32 1
  %15 = load ptr, ptr %14, align 8
  call void @col_clear(ptr noundef %15, i32 noundef 25)
  call void @llvm.lifetime.start.p0(i64 1, ptr %11) #19
  %16 = load ptr, ptr %5, align 8
  %17 = load i32, ptr %9, align 4
  %18 = call zeroext i8 @tvb_get_uint8(ptr noundef %16, i32 noundef %17)
  store i8 %18, ptr %11, align 1
  %19 = load i8, ptr %11, align 1
  %20 = zext i8 %19 to i32
  %21 = and i32 %20, 128
  %22 = icmp ne i32 %21, 0
  %23 = zext i1 %22 to i32
  %24 = trunc i32 %23 to i8
  store i8 %24, ptr %10, align 1
  %25 = load i32, ptr %9, align 4
  %26 = add i32 %25, 1
  store i32 %26, ptr %9, align 4
  %27 = load ptr, ptr %6, align 8
  %28 = getelementptr inbounds nuw %struct._packet_info, ptr %27, i32 0, i32 1
  %29 = load ptr, ptr %28, align 8
  call void @col_set_str(ptr noundef %29, i32 noundef 35, ptr noundef @.str.708)
  %30 = load i8, ptr %10, align 1
  %31 = icmp ne i8 %30, 0
  br i1 %31, label %32, label %33

32:                                               ; preds = %4
  br label %33

33:                                               ; preds = %32, %4
  %34 = load ptr, ptr %5, align 8
  %35 = call i32 @tvb_reported_length(ptr noundef %34)
  %36 = load i32, ptr %9, align 4
  %37 = icmp eq i32 %35, %36
  br i1 %37, label %38, label %42

38:                                               ; preds = %33
  %39 = load ptr, ptr %6, align 8
  %40 = getelementptr inbounds nuw %struct._packet_info, ptr %39, i32 0, i32 1
  %41 = load ptr, ptr %40, align 8
  call void @col_set_str(ptr noundef %41, i32 noundef 25, ptr noundef @.str.702)
  br label %70

42:                                               ; preds = %33
  call void @llvm.lifetime.start.p0(i64 1, ptr %12) #19
  %43 = load ptr, ptr %5, align 8
  %44 = load i32, ptr %9, align 4
  %45 = call zeroext i8 @tvb_get_uint8(ptr noundef %43, i32 noundef %44)
  store i8 %45, ptr %12, align 1
  %46 = load ptr, ptr %6, align 8
  %47 = getelementptr inbounds nuw %struct._packet_info, ptr %46, i32 0, i32 1
  %48 = load ptr, ptr %47, align 8
  call void @col_set_str(ptr noundef %48, i32 noundef 25, ptr noundef @.str.703)
  br label %49

49:                                               ; preds = %65, %42
  %50 = load i8, ptr %12, align 1
  %51 = icmp ne i8 %50, 0
  br i1 %51, label %52, label %69

52:                                               ; preds = %49
  %53 = load ptr, ptr %7, align 8
  %54 = load i32, ptr @hf_2008_1_dpp_0_1_1_version, align 4
  %55 = load ptr, ptr %5, align 8
  %56 = load i32, ptr %9, align 4
  %57 = call ptr @proto_tree_add_item(ptr noundef %53, i32 noundef %54, ptr noundef %55, i32 noundef %56, i32 noundef 1, i32 noundef 0)
  %58 = load i32, ptr %9, align 4
  %59 = add i32 %58, 1
  store i32 %59, ptr %9, align 4
  %60 = load i32, ptr %9, align 4
  %61 = load ptr, ptr %5, align 8
  %62 = call i32 @tvb_reported_length(ptr noundef %61)
  %63 = icmp eq i32 %60, %62
  br i1 %63, label %64, label %65

64:                                               ; preds = %52
  br label %69

65:                                               ; preds = %52
  %66 = load ptr, ptr %5, align 8
  %67 = load i32, ptr %9, align 4
  %68 = call zeroext i8 @tvb_get_uint8(ptr noundef %66, i32 noundef %67)
  store i8 %68, ptr %12, align 1
  br label %49, !llvm.loop !48

69:                                               ; preds = %64, %49
  call void @llvm.lifetime.end.p0(i64 1, ptr %12) #19
  br label %70

70:                                               ; preds = %69, %38
  call void @llvm.lifetime.end.p0(i64 1, ptr %11) #19
  %71 = load ptr, ptr %6, align 8
  %72 = getelementptr inbounds nuw %struct._packet_info, ptr %71, i32 0, i32 1
  %73 = load ptr, ptr %72, align 8
  call void @col_set_fence(ptr noundef %73, i32 noundef 35)
  %74 = load ptr, ptr %6, align 8
  %75 = getelementptr inbounds nuw %struct._packet_info, ptr %74, i32 0, i32 1
  %76 = load ptr, ptr %75, align 8
  call void @col_set_fence(ptr noundef %76, i32 noundef 25)
  %77 = load ptr, ptr %5, align 8
  %78 = call i32 @tvb_reported_length(ptr noundef %77)
  call void @llvm.lifetime.end.p0(i64 1, ptr %10) #19
  call void @llvm.lifetime.end.p0(i64 4, ptr %9) #19
  ret i32 %78
}