; Function Attrs: null_pointer_is_valid sspstrong uwtable
define internal i32 @dissect_dpp_0(ptr noundef %0, ptr noundef readonly captures(none) %1, ptr noundef %2, ptr readnone captures(none) %3) #0 {
  %5 = getelementptr inbounds nuw i8, ptr %1, i64 8
  %6 = load ptr, ptr %5, align 8
  tail call void @col_clear(ptr noundef %6, i32 noundef 25)
  %7 = tail call zeroext i8 @tvb_get_uint8(ptr noundef %0, i32 noundef 0)
  %8 = load ptr, ptr %5, align 8
  tail call void @col_set_str(ptr noundef %8, i32 noundef 35, ptr noundef nonnull @.str.708)
  %9 = tail call i32 @tvb_reported_length(ptr noundef %0)
  %10 = icmp eq i32 %9, 1
  br i1 %10, label %11, label %13

11:                                               ; preds = %4
  %12 = load ptr, ptr %5, align 8
  tail call void @col_set_str(ptr noundef %12, i32 noundef 25, ptr noundef nonnull @.str.702)
  br label %.loopexit

13:                                               ; preds = %4
  %14 = tail call zeroext i8 @tvb_get_uint8(ptr noundef %0, i32 noundef 1)
  %15 = load ptr, ptr %5, align 8
  tail call void @col_set_str(ptr noundef %15, i32 noundef 25, ptr noundef nonnull @.str.703)
  %.not26 = icmp eq i8 %14, 0
  br i1 %.not26, label %.loopexit, label %.lr.ph

.lr.ph:                                           ; preds = %13, %21
  %.02427 = phi i32 [ %18, %21 ], [ 1, %13 ]
  %16 = load i32, ptr @hf_2008_1_dpp_0_1_1_version, align 4
  %17 = tail call ptr @proto_tree_add_item(ptr noundef %2, i32 noundef %16, ptr noundef %0, i32 noundef %.02427, i32 noundef 1, i32 noundef 0)
  %18 = add i32 %.02427, 1
  %19 = tail call i32 @tvb_reported_length(ptr noundef %0)
  %20 = icmp eq i32 %18, %19
  br i1 %20, label %.loopexit, label %21

21:                                               ; preds = %.lr.ph
  %22 = tail call zeroext i8 @tvb_get_uint8(ptr noundef %0, i32 noundef %18)
  %.not = icmp eq i8 %22, 0
  br i1 %.not, label %.loopexit, label %.lr.ph, !llvm.loop !54

.loopexit:                                        ; preds = %.lr.ph, %21, %13, %11
  %23 = load ptr, ptr %5, align 8
  tail call void @col_set_fence(ptr noundef %23, i32 noundef 35)
  %24 = load ptr, ptr %5, align 8
  tail call void @col_set_fence(ptr noundef %24, i32 noundef 25)
  %25 = tail call i32 @tvb_reported_length(ptr noundef %0)
  ret i32 %25
}